target datalayout = "e-m:e-p270:32:32-p271:32:32-p272:64:64-i64:64-i128:128-f80:128-n8:16:32:64-S128"
target triple = "x86_64-pc-linux-gnu"

%struct.stbi__write_context = type { ptr, ptr }

; Function Attrs: mustprogress uwtable
define dso_local void @_Z21stbiw__write_run_dataP19stbi__write_contextih(ptr noundef %0, i32 noundef %1, i8 noundef zeroext %2) #4 {
  %4 = alloca ptr, align 8
  %5 = alloca i32, align 4
  %6 = alloca i8, align 1
  %7 = alloca i8, align 1
  store ptr %0, ptr %4, align 8
  store i32 %1, ptr %5, align 4
  store i8 %2, ptr %6, align 1
  %8 = load i32, ptr %5, align 4
  %9 = add nsw i32 %8, 128
  %10 = and i32 %9, 255
  %11 = trunc i32 %10 to i8
  store i8 %11, ptr %7, align 1
  %12 = load ptr, ptr %4, align 8
  %13 = getelementptr inbounds %struct.stbi__write_context, ptr %12, i32 0, i32 0
  %14 = load ptr, ptr %13, align 8
  %15 = load ptr, ptr %4, align 8
  %16 = getelementptr inbounds %struct.stbi__write_context, ptr %15, i32 0, i32 1
  %17 = load ptr, ptr %16, align 8
  call void %14(ptr noundef %17, ptr noundef %7, i32 noundef 1)
  %18 = load ptr, ptr %4, align 8
  %19 = getelementptr inbounds %struct.stbi__write_context, ptr %18, i32 0, i32 0
  %20 = load ptr, ptr %19, align 8
  %21 = load ptr, ptr %4, align 8
  %22 = getelementptr inbounds %struct.stbi__write_context, ptr %21, i32 0, i32 1
  %23 = load ptr, ptr %22, align 8
  call void %20(ptr noundef %23, ptr noundef %6, i32 noundef 1)
  ret void
}