; Function Attrs: mustprogress uwtable
define dso_local void @_Z21stbiw__write_run_dataP19stbi__write_contextih(ptr nocapture noundef readonly %0, i32 noundef %1, i8 noundef zeroext %2) local_unnamed_addr #3 {
  %4 = alloca i8, align 1
  %5 = alloca i8, align 1
  store i8 %2, ptr %4, align 1
  %6 = trunc i32 %1 to i8
  %7 = xor i8 %6, -128
  store i8 %7, ptr %5, align 1
  %8 = load ptr, ptr %0, align 8
  %9 = getelementptr inbounds i8, ptr %0, i64 8
  %10 = load ptr, ptr %9, align 8
  call void %8(ptr noundef %10, ptr noundef nonnull %5, i32 noundef 1)
  %11 = load ptr, ptr %0, align 8
  %12 = load ptr, ptr %9, align 8
  call void %11(ptr noundef %12, ptr noundef nonnull %4, i32 noundef 1)
  ret void
}